; Function Attrs: nounwind uwtable
define void @duckdb_je_thread_tcache_max_set(ptr noundef %0, i64 noundef %1) local_unnamed_addr #0 {
  %3 = alloca [73 x %struct.cache_bin_info_s], align 16
  %4 = getelementptr inbounds nuw i8, ptr %0, i64 864
  %5 = load ptr, ptr %4, align 8, !tbaa !42
  call void @llvm.lifetime.start.p0(i64 146, ptr nonnull %3) #16
  call void @llvm.memset.p0.i64(ptr noundef nonnull align 16 dereferenceable(146) %3, i8 0, i64 146, i1 false)
  %6 = load i8, ptr %0, align 1, !tbaa !17, !range !19, !noundef !20
  %7 = trunc nuw i8 %6 to i1
  br i1 %7, label %8, label %duckdb_je_tcache_cleanup.exit

8:                                                ; preds = %2
  %9 = getelementptr inbounds nuw i8, ptr %5, i64 40
  %10 = load ptr, ptr %9, align 8, !tbaa !45
  %11 = getelementptr i8, ptr %0, i64 894
  br label %12

12:                                               ; preds = %12, %8
  %indvars.iv.i = phi i64 [ 0, %8 ], [ %indvars.iv.next.i, %12 ]
  %13 = getelementptr inbounds nuw %struct.cache_bin_info_s, ptr %3, i64 %indvars.iv.i
  %.idx.i = mul nuw nsw i64 %indvars.iv.i, 24
  %14 = getelementptr i8, ptr %11, i64 %.idx.i
  %.val.i = load i16, ptr %14, align 2, !tbaa !40
  call void @duckdb_je_cache_bin_info_init(ptr noundef nonnull %13, i16 noundef zeroext %.val.i) #16
  %indvars.iv.next.i = add nuw nsw i64 %indvars.iv.i, 1
  %exitcond.not.i = icmp eq i64 %indvars.iv.next.i, 73
  br i1 %exitcond.not.i, label %tcache_bin_settings_backup.exit, label %12

tcache_bin_settings_backup.exit:                  ; preds = %12
  %15 = load i8, ptr %0, align 1, !tbaa !17, !range !19, !noundef !20
  %16 = trunc nuw i8 %15 to i1
  br i1 %16, label %17, label %duckdb_je_tcache_cleanup.exit

17:                                               ; preds = %tcache_bin_settings_backup.exit
  call fastcc void @tcache_destroy(ptr noundef nonnull %0, ptr noundef nonnull %4, i1 noundef zeroext true)
  %18 = getelementptr inbounds nuw i8, ptr %0, i64 872
  call void @llvm.memset.p0.i64(ptr noundef nonnull align 8 dereferenceable(1752) %18, i8 0, i64 1752, i1 false)
  br label %duckdb_je_tcache_cleanup.exit

duckdb_je_tcache_cleanup.exit:                    ; preds = %17, %tcache_bin_settings_backup.exit, %2
  %.0 = phi ptr [ undef, %2 ], [ %10, %tcache_bin_settings_backup.exit ], [ %10, %17 ]
  %19 = icmp ult i64 %1, 4097
  br i1 %19, label %20, label %26, !prof !11

20:                                               ; preds = %duckdb_je_tcache_cleanup.exit
  %21 = add nuw nsw i64 %1, 7
  %22 = lshr i64 %21, 3
  %23 = getelementptr inbounds nuw [0 x i8], ptr @duckdb_je_sz_size2index_tab, i64 0, i64 %22
  %24 = load i8, ptr %23, align 1, !tbaa !39
  %25 = zext i8 %24 to i32
  br label %tcache_max_set.exit

26:                                               ; preds = %duckdb_je_tcache_cleanup.exit
  %27 = call fastcc i32 @sz_size2index_compute(i64 noundef %1)
  br label %tcache_max_set.exit

tcache_max_set.exit:                              ; preds = %20, %26
  %.0.i.i = phi i32 [ %25, %20 ], [ %27, %26 ]
  %28 = add nuw nsw i32 %.0.i.i, 1
  %29 = getelementptr inbounds nuw i8, ptr %5, i64 48
  store i32 %28, ptr %29, align 8, !tbaa !41
  br i1 %7, label %30, label %31

30:                                               ; preds = %tcache_max_set.exit
  call fastcc void @duckdb_je_tsd_tcache_data_init(ptr noundef nonnull %0, ptr noundef %.0, ptr noundef nonnull %3)
  br label %31

31:                                               ; preds = %tcache_max_set.exit, %30
  call void @llvm.lifetime.end.p0(i64 146, ptr nonnull %3) #16
  ret void
}